target datalayout = "e-m:e-p270:32:32-p271:32:32-p272:64:64-i64:64-i128:128-f80:128-n8:16:32:64-S128"
target triple = "x86_64-pc-linux-gnu"

%"struct.Luau::CodeGen::X64::RegisterX64" = type { i8 }
%"struct.Luau::CodeGen::X64::IrRegAllocX64" = type { ptr, ptr, ptr, i32, %"struct.std::array", %"struct.std::array.0", %"struct.std::array", %"struct.std::array.0", i8, %"class.std::bitset", i32, i32, %"class.std::vector" }
%"struct.std::array" = type { [16 x i8] }
%"struct.std::array.0" = type { [16 x i32] }
%"class.std::bitset" = type { %"struct.std::_Base_bitset" }
%"struct.std::_Base_bitset" = type { [4 x i64] }
%"class.std::vector" = type { %"struct.std::_Vector_base" }
%"struct.std::_Vector_base" = type { %"struct.std::_Vector_base<Luau::CodeGen::X64::IrSpillX64, std::allocator<Luau::CodeGen::X64::IrSpillX64>>::_Vector_impl" }
%"struct.std::_Vector_base<Luau::CodeGen::X64::IrSpillX64, std::allocator<Luau::CodeGen::X64::IrSpillX64>>::_Vector_impl" = type { %"struct.std::_Vector_base<Luau::CodeGen::X64::IrSpillX64, std::allocator<Luau::CodeGen::X64::IrSpillX64>>::_Vector_impl_data" }
%"struct.std::_Vector_base<Luau::CodeGen::X64::IrSpillX64, std::allocator<Luau::CodeGen::X64::IrSpillX64>>::_Vector_impl_data" = type { ptr, ptr, ptr }
%"struct.Luau::CodeGen::X64::ScopedRegX64" = type <{ ptr, %"struct.Luau::CodeGen::X64::RegisterX64", [7 x i8] }>

@_ZN4Luau7CodeGen3X64L5noregE = internal constant %"struct.Luau::CodeGen::X64::RegisterX64" { i8 -128 }, align 1

; Function Attrs: mustprogress nounwind uwtable
define linkonce_odr dso_local noundef nonnull align 4 dereferenceable(4) ptr @_ZNSt14__array_traitsIjLm16EE6_S_refERA16_Kjm(ptr noundef nonnull align 4 dereferenceable(64) %0, i64 noundef %1) #1 comdat align 2 {
  %3 = alloca ptr, align 8
  %4 = alloca i64, align 8
  store ptr %0, ptr %3, align 8
  store i64 %1, ptr %4, align 8
  %5 = load ptr, ptr %3, align 8
  %6 = load i64, ptr %4, align 8
  %7 = getelementptr inbounds [16 x i32], ptr %5, i64 0, i64 %6
  ret ptr %7
}

; Function Attrs: mustprogress nounwind uwtable
define linkonce_odr dso_local noundef nonnull align 1 dereferenceable(1) ptr @_ZNSt14__array_traitsIbLm16EE6_S_refERA16_Kbm(ptr noundef nonnull align 1 dereferenceable(16) %0, i64 noundef %1) #1 comdat align 2 {
  %3 = alloca ptr, align 8
  %4 = alloca i64, align 8
  store ptr %0, ptr %3, align 8
  store i64 %1, ptr %4, align 8
  %5 = load ptr, ptr %3, align 8
  %6 = load i64, ptr %4, align 8
  %7 = getelementptr inbounds [16 x i8], ptr %5, i64 0, i64 %6
  ret ptr %7
}

; Function Attrs: mustprogress nounwind uwtable
define linkonce_odr dso_local noundef nonnull align 4 dereferenceable(4) ptr @_ZNSt5arrayIjLm16EEixEm(ptr noundef nonnull align 4 dereferenceable(64) %0, i64 noundef %1) #1 comdat align 2 {
  %3 = alloca ptr, align 8
  %4 = alloca i64, align 8
  store ptr %0, ptr %3, align 8
  store i64 %1, ptr %4, align 8
  %5 = load ptr, ptr %3, align 8
  %6 = getelementptr inbounds %"struct.std::array.0", ptr %5, i32 0, i32 0
  %7 = load i64, ptr %4, align 8
  %8 = call noundef nonnull align 4 dereferenceable(4) ptr @_ZNSt14__array_traitsIjLm16EE6_S_refERA16_Kjm(ptr noundef nonnull align 4 dereferenceable(64) %6, i64 noundef %7) #10
  ret ptr %8
}

; Function Attrs: mustprogress nounwind uwtable
define linkonce_odr dso_local noundef nonnull align 1 dereferenceable(1) ptr @_ZNSt5arrayIbLm16EEixEm(ptr noundef nonnull align 1 dereferenceable(16) %0, i64 noundef %1) #1 comdat align 2 {
  %3 = alloca ptr, align 8
  %4 = alloca i64, align 8
  store ptr %0, ptr %3, align 8
  store i64 %1, ptr %4, align 8
  %5 = load ptr, ptr %3, align 8
  %6 = getelementptr inbounds %"struct.std::array", ptr %5, i32 0, i32 0
  %7 = load i64, ptr %4, align 8
  %8 = call noundef nonnull align 1 dereferenceable(1) ptr @_ZNSt14__array_traitsIbLm16EE6_S_refERA16_Kbm(ptr noundef nonnull align 1 dereferenceable(16) %6, i64 noundef %7) #10
  ret ptr %8
}

; Function Attrs: mustprogress nounwind uwtable
define linkonce_odr dso_local noundef zeroext i1 @_ZNK4Luau7CodeGen3X6411RegisterX64eqES2_(ptr noundef nonnull align 1 dereferenceable(1) %0, i8 %1) #1 comdat align 2 {
  %3 = alloca %"struct.Luau::CodeGen::X64::RegisterX64", align 1
  %4 = alloca ptr, align 8
  %5 = getelementptr inbounds %"struct.Luau::CodeGen::X64::RegisterX64", ptr %3, i32 0, i32 0
  store i8 %1, ptr %5, align 1
  store ptr %0, ptr %4, align 8
  %6 = load ptr, ptr %4, align 8
  %7 = load i8, ptr %6, align 1
  %8 = and i8 %7, 7
  %9 = load i8, ptr %3, align 1
  %10 = and i8 %9, 7
  %11 = icmp eq i8 %8, %10
  br i1 %11, label %12, label %20

12:                                               ; preds = %2
  %13 = load i8, ptr %6, align 1
  %14 = lshr i8 %13, 3
  %15 = zext i8 %14 to i32
  %16 = load i8, ptr %3, align 1
  %17 = lshr i8 %16, 3
  %18 = zext i8 %17 to i32
  %19 = icmp eq i32 %15, %18
  br label %20

20:                                               ; preds = %12, %2
  %21 = phi i1 [ false, %2 ], [ %19, %12 ]
  ret i1 %21
}

; Function Attrs: noreturn nounwind uwtable
define linkonce_odr hidden void @__clang_call_terminate(ptr noundef %0) #5 comdat {
  %2 = call ptr @__cxa_begin_catch(ptr %0) #10
  call void @_ZSt9terminatev() #12
  unreachable
}

; Function Attrs: mustprogress nounwind uwtable
define dso_local void @_ZN4Luau7CodeGen3X6413IrRegAllocX647freeRegENS1_11RegisterX64E(ptr noundef nonnull align 8 dereferenceable(256) %0, i8 %1) #1 align 2 {
  %3 = alloca %"struct.Luau::CodeGen::X64::RegisterX64", align 1
  %4 = alloca ptr, align 8
  %5 = getelementptr inbounds %"struct.Luau::CodeGen::X64::RegisterX64", ptr %3, i32 0, i32 0
  store i8 %1, ptr %5, align 1
  store ptr %0, ptr %4, align 8
  %6 = load ptr, ptr %4, align 8
  %7 = load i8, ptr %3, align 1
  %8 = and i8 %7, 7
  %9 = icmp eq i8 %8, 5
  br i1 %9, label %10, label %21

10:                                               ; preds = %2
  %11 = getelementptr inbounds %"struct.Luau::CodeGen::X64::IrRegAllocX64", ptr %6, i32 0, i32 6
  %12 = load i8, ptr %3, align 1
  %13 = lshr i8 %12, 3
  %14 = zext i8 %13 to i64
  %15 = call noundef nonnull align 1 dereferenceable(1) ptr @_ZNSt5arrayIbLm16EEixEm(ptr noundef nonnull align 1 dereferenceable(16) %11, i64 noundef %14) #10
  store i8 1, ptr %15, align 1
  %16 = getelementptr inbounds %"struct.Luau::CodeGen::X64::IrRegAllocX64", ptr %6, i32 0, i32 7
  %17 = load i8, ptr %3, align 1
  %18 = lshr i8 %17, 3
  %19 = zext i8 %18 to i64
  %20 = call noundef nonnull align 4 dereferenceable(4) ptr @_ZNSt5arrayIjLm16EEixEm(ptr noundef nonnull align 4 dereferenceable(64) %16, i64 noundef %19) #10
  store i32 -1, ptr %20, align 4
  br label %32

21:                                               ; preds = %2
  %22 = getelementptr inbounds %"struct.Luau::CodeGen::X64::IrRegAllocX64", ptr %6, i32 0, i32 4
  %23 = load i8, ptr %3, align 1
  %24 = lshr i8 %23, 3
  %25 = zext i8 %24 to i64
  %26 = call noundef nonnull align 1 dereferenceable(1) ptr @_ZNSt5arrayIbLm16EEixEm(ptr noundef nonnull align 1 dereferenceable(16) %22, i64 noundef %25) #10
  store i8 1, ptr %26, align 1
  %27 = getelementptr inbounds %"struct.Luau::CodeGen::X64::IrRegAllocX64", ptr %6, i32 0, i32 5
  %28 = load i8, ptr %3, align 1
  %29 = lshr i8 %28, 3
  %30 = zext i8 %29 to i64
  %31 = call noundef nonnull align 4 dereferenceable(4) ptr @_ZNSt5arrayIjLm16EEixEm(ptr noundef nonnull align 4 dereferenceable(64) %27, i64 noundef %30) #10
  store i32 -1, ptr %31, align 4
  br label %32

32:                                               ; preds = %21, %10
  ret void
}

; Function Attrs: mustprogress nounwind uwtable
define linkonce_odr dso_local noundef zeroext i1 @_ZNK4Luau7CodeGen3X6411RegisterX64neES2_(ptr noundef nonnull align 1 dereferenceable(1) %0, i8 %1) #1 comdat align 2 {
  %3 = alloca %"struct.Luau::CodeGen::X64::RegisterX64", align 1
  %4 = alloca ptr, align 8
  %5 = alloca %"struct.Luau::CodeGen::X64::RegisterX64", align 1
  %6 = getelementptr inbounds %"struct.Luau::CodeGen::X64::RegisterX64", ptr %3, i32 0, i32 0
  store i8 %1, ptr %6, align 1
  store ptr %0, ptr %4, align 8
  %7 = load ptr, ptr %4, align 8
  call void @llvm.memcpy.p0.p0.i64(ptr align 1 %5, ptr align 1 %3, i64 1, i1 false)
  %8 = getelementptr inbounds %"struct.Luau::CodeGen::X64::RegisterX64", ptr %5, i32 0, i32 0
  %9 = load i8, ptr %8, align 1
  %10 = call noundef zeroext i1 @_ZNK4Luau7CodeGen3X6411RegisterX64eqES2_(ptr noundef nonnull align 1 dereferenceable(1) %7, i8 %9)
  %11 = xor i1 %10, true
  ret i1 %11
}

; Function Attrs: mustprogress nounwind uwtable
define dso_local void @_ZN4Luau7CodeGen3X6412ScopedRegX64D2Ev(ptr noundef nonnull align 8 dereferenceable(9) %0) unnamed_addr #1 align 2 personality ptr @__gxx_personality_v0 {
  %2 = alloca ptr, align 8
  %3 = alloca %"struct.Luau::CodeGen::X64::RegisterX64", align 1
  %4 = alloca %"struct.Luau::CodeGen::X64::RegisterX64", align 1
  store ptr %0, ptr %2, align 8
  %5 = load ptr, ptr %2, align 8
  %6 = getelementptr inbounds %"struct.Luau::CodeGen::X64::ScopedRegX64", ptr %5, i32 0, i32 1
  call void @llvm.memcpy.p0.p0.i64(ptr align 1 %3, ptr align 1 @_ZN4Luau7CodeGen3X64L5noregE, i64 1, i1 false)
  %7 = getelementptr inbounds %"struct.Luau::CodeGen::X64::RegisterX64", ptr %3, i32 0, i32 0
  %8 = load i8, ptr %7, align 1
  %9 = invoke noundef zeroext i1 @_ZNK4Luau7CodeGen3X6411RegisterX64neES2_(ptr noundef nonnull align 1 dereferenceable(1) %6, i8 %8)
          to label %10 unwind label %18

10:                                               ; preds = %1
  br i1 %9, label %11, label %17

11:                                               ; preds = %10
  %12 = getelementptr inbounds %"struct.Luau::CodeGen::X64::ScopedRegX64", ptr %5, i32 0, i32 0
  %13 = load ptr, ptr %12, align 8
  %14 = getelementptr inbounds %"struct.Luau::CodeGen::X64::ScopedRegX64", ptr %5, i32 0, i32 1
  call void @llvm.memcpy.p0.p0.i64(ptr align 1 %4, ptr align 8 %14, i64 1, i1 false)
  %15 = getelementptr inbounds %"struct.Luau::CodeGen::X64::RegisterX64", ptr %4, i32 0, i32 0
  %16 = load i8, ptr %15, align 1
  call void @_ZN4Luau7CodeGen3X6413IrRegAllocX647freeRegENS1_11RegisterX64E(ptr noundef nonnull align 8 dereferenceable(256) %13, i8 %16)
  br label %17

17:                                               ; preds = %11, %10
  ret void

18:                                               ; preds = %1
  %19 = landingpad { ptr, i32 }
          catch ptr null
  %20 = extractvalue { ptr, i32 } %19, 0
  call void @__clang_call_terminate(ptr %20) #12
  unreachable
}