; Function Attrs: mustprogress nofree norecurse nosync nounwind willreturn memory(write, argmem: readwrite, inaccessiblemem: none) uwtable
define dso_local void @_ZN4Luau7CodeGen3X6412ScopedRegX64D2Ev(ptr nocapture noundef nonnull readonly align 8 dereferenceable(9) %0) unnamed_addr #9 align 2 personality ptr @__gxx_personality_v0 {
  %2 = getelementptr inbounds i8, ptr %0, i64 8
  %3 = load i8, ptr %2, align 8
  %.not = icmp eq i8 %3, -128
  br i1 %.not, label %14, label %4

4:                                                ; preds = %1
  %5 = load ptr, ptr %0, align 8
  %6 = and i8 %3, 7
  %7 = icmp eq i8 %6, 5
  %8 = lshr i8 %3, 3
  %9 = zext nneg i8 %8 to i64
  %..i = select i1 %7, i64 108, i64 28
  %.9.i = select i1 %7, i64 124, i64 44
  %10 = getelementptr inbounds i8, ptr %5, i64 %..i
  %11 = getelementptr inbounds [16 x i8], ptr %10, i64 0, i64 %9
  store i8 1, ptr %11, align 1
  %12 = getelementptr inbounds i8, ptr %5, i64 %.9.i
  %13 = getelementptr inbounds [16 x i32], ptr %12, i64 0, i64 %9
  store i32 -1, ptr %13, align 4
  br label %14

14:                                               ; preds = %4, %1
  ret void
}